target datalayout = "e-m:e-p270:32:32-p271:32:32-p272:64:64-i64:64-i128:128-f80:128-n8:16:32:64-S128"
target triple = "x86_64-pc-linux-gnu"

%struct.Intb_Man_t_ = type { ptr, ptr, i32, i32, i32, i32, i32, i32, i32, ptr, ptr, ptr, ptr, ptr, ptr, ptr, ptr, i32, i32, ptr, ptr, ptr, i32, i32, i64, i64, i64 }
%struct.Sto_Man_t_ = type { i32, i32, i32, i32, ptr, ptr, ptr, i32, i32, ptr }
%struct.Sto_Cls_t_ = type { ptr, ptr, ptr, i32, i32, [0 x i32] }
%struct.Vec_Int_t_ = type { i32, i32, ptr }
%struct.Aig_Man_t_ = type { ptr, ptr, ptr, ptr, ptr, ptr, ptr, %struct.Aig_Obj_t_, i32, i32, i32, i32, i32, i32, [7 x i32], i32, ptr, i32, ptr, i32, ptr, i32, i32, i32, ptr, i32, i32, i32, i32, i32, ptr, ptr, i32, ptr, ptr, i32, ptr, ptr, i32, i32, i32, ptr, ptr, ptr, ptr, ptr, ptr, ptr, ptr, ptr, ptr, ptr, ptr, ptr, ptr, i32, ptr, ptr, ptr, ptr, i32, i64, i64, i64, ptr, ptr }
%struct.Aig_Obj_t_ = type { %union.anon, ptr, ptr, i64, i32, i32, %union.anon.0 }
%union.anon = type { ptr }
%union.anon.0 = type { ptr }

; Function Attrs: inlinehint nounwind uwtable
define internal ptr @Aig_Not(ptr noundef %0) #4 {
  %2 = alloca ptr, align 8
  store ptr %0, ptr %2, align 8, !tbaa !92
  %3 = load ptr, ptr %2, align 8, !tbaa !92
  %4 = ptrtoint ptr %3 to i64
  %5 = xor i64 %4, 1
  %6 = inttoptr i64 %5 to ptr
  ret ptr %6
}

; Function Attrs: inlinehint nounwind uwtable
define internal i32 @Vec_IntSize(ptr noundef %0) #4 {
  %2 = alloca ptr, align 8
  store ptr %0, ptr %2, align 8, !tbaa !41
  %3 = load ptr, ptr %2, align 8, !tbaa !41
  %4 = getelementptr inbounds nuw %struct.Vec_Int_t_, ptr %3, i32 0, i32 1
  %5 = load i32, ptr %4, align 4, !tbaa !42
  ret i32 %5
}

; Function Attrs: inlinehint nounwind uwtable
define internal ptr @Aig_NotCond(ptr noundef %0, i32 noundef %1) #4 {
  %3 = alloca ptr, align 8
  %4 = alloca i32, align 4
  store ptr %0, ptr %3, align 8, !tbaa !92
  store i32 %1, ptr %4, align 4, !tbaa !23
  %5 = load ptr, ptr %3, align 8, !tbaa !92
  %6 = ptrtoint ptr %5 to i64
  %7 = load i32, ptr %4, align 4, !tbaa !23
  %8 = sext i32 %7 to i64
  %9 = xor i64 %6, %8
  %10 = inttoptr i64 %9 to ptr
  ret ptr %10
}

; Function Attrs: inlinehint nounwind uwtable
define internal i32 @lit_sign(i32 noundef %0) #4 {
  %2 = alloca i32, align 4
  store i32 %0, ptr %2, align 4, !tbaa !23
  %3 = load i32, ptr %2, align 4, !tbaa !23
  %4 = and i32 %3, 1
  ret i32 %4
}

; Function Attrs: inlinehint nounwind uwtable
define internal i32 @lit_var(i32 noundef %0) #4 {
  %2 = alloca i32, align 4
  store i32 %0, ptr %2, align 4, !tbaa !23
  %3 = load i32, ptr %2, align 4, !tbaa !23
  %4 = ashr i32 %3, 1
  ret i32 %4
}

; Function Attrs: inlinehint nounwind uwtable
define internal ptr @Aig_ManConst0(ptr noundef %0) #4 {
  %2 = alloca ptr, align 8
  store ptr %0, ptr %2, align 8, !tbaa !109
  %3 = load ptr, ptr %2, align 8, !tbaa !109
  %4 = getelementptr inbounds nuw %struct.Aig_Man_t_, ptr %3, i32 0, i32 6
  %5 = load ptr, ptr %4, align 8, !tbaa !117
  %6 = call ptr @Aig_Not(ptr noundef %5)
  ret ptr %6
}

; Function Attrs: inlinehint nounwind uwtable
define internal ptr @Aig_ManConst1(ptr noundef %0) #4 {
  %2 = alloca ptr, align 8
  store ptr %0, ptr %2, align 8, !tbaa !109
  %3 = load ptr, ptr %2, align 8, !tbaa !109
  %4 = getelementptr inbounds nuw %struct.Aig_Man_t_, ptr %3, i32 0, i32 6
  %5 = load ptr, ptr %4, align 8, !tbaa !117
  ret ptr %5
}

; Function Attrs: nounwind uwtable
define ptr @Intb_ManDeriveClauses(ptr noundef %0, ptr noundef %1, i32 noundef %2) #0 {
  %4 = alloca ptr, align 8
  %5 = alloca ptr, align 8
  %6 = alloca i32, align 4
  %7 = alloca ptr, align 8
  %8 = alloca ptr, align 8
  %9 = alloca ptr, align 8
  %10 = alloca ptr, align 8
  %11 = alloca ptr, align 8
  %12 = alloca i32, align 4
  %13 = alloca i32, align 4
  %14 = alloca i32, align 4
  store ptr %0, ptr %4, align 8, !tbaa !3
  store ptr %1, ptr %5, align 8, !tbaa !107
  store i32 %2, ptr %6, align 4, !tbaa !23
  call void @llvm.lifetime.start.p0(i64 8, ptr %7) #9
  call void @llvm.lifetime.start.p0(i64 8, ptr %8) #9
  call void @llvm.lifetime.start.p0(i64 8, ptr %9) #9
  call void @llvm.lifetime.start.p0(i64 8, ptr %10) #9
  call void @llvm.lifetime.start.p0(i64 8, ptr %11) #9
  call void @llvm.lifetime.start.p0(i64 4, ptr %12) #9
  call void @llvm.lifetime.start.p0(i64 4, ptr %13) #9
  call void @llvm.lifetime.start.p0(i64 4, ptr %14) #9
  %15 = call ptr @Aig_ManStart(i32 noundef 10000)
  store ptr %15, ptr %7, align 8, !tbaa !109
  %16 = load ptr, ptr %7, align 8, !tbaa !109
  %17 = call ptr @Aig_ManConst1(ptr noundef %16)
  store ptr %17, ptr %8, align 8, !tbaa !92
  %18 = load ptr, ptr %5, align 8, !tbaa !107
  %19 = getelementptr inbounds nuw %struct.Sto_Man_t_, ptr %18, i32 0, i32 4
  %20 = load ptr, ptr %19, align 8, !tbaa !25
  store ptr %20, ptr %11, align 8, !tbaa !28
  br label %21

21:                                               ; preds = %121, %3
  %22 = load ptr, ptr %11, align 8, !tbaa !28
  %23 = icmp ne ptr %22, null
  br i1 %23, label %24, label %31

24:                                               ; preds = %21
  %25 = load ptr, ptr %11, align 8, !tbaa !28
  %26 = getelementptr inbounds nuw %struct.Sto_Cls_t_, ptr %25, i32 0, i32 4
  %27 = load i32, ptr %26, align 4
  %28 = lshr i32 %27, 1
  %29 = and i32 %28, 1
  %30 = icmp ne i32 %29, 0
  br label %31

31:                                               ; preds = %24, %21
  %32 = phi i1 [ false, %21 ], [ %30, %24 ]
  br i1 %32, label %33, label %125

33:                                               ; preds = %31
  %34 = load i32, ptr %6, align 4, !tbaa !23
  %35 = load ptr, ptr %11, align 8, !tbaa !28
  %36 = getelementptr inbounds nuw %struct.Sto_Cls_t_, ptr %35, i32 0, i32 4
  %37 = load i32, ptr %36, align 4
  %38 = and i32 %37, 1
  %39 = xor i32 %34, %38
  %40 = icmp ne i32 %39, 0
  br i1 %40, label %41, label %42

41:                                               ; preds = %33
  br label %121

42:                                               ; preds = %33
  %43 = load ptr, ptr %7, align 8, !tbaa !109
  %44 = call ptr @Aig_ManConst0(ptr noundef %43)
  store ptr %44, ptr %9, align 8, !tbaa !92
  store i32 0, ptr %14, align 4, !tbaa !23
  br label %45

45:                                               ; preds = %113, %42
  %46 = load i32, ptr %14, align 4, !tbaa !23
  %47 = load ptr, ptr %11, align 8, !tbaa !28
  %48 = getelementptr inbounds nuw %struct.Sto_Cls_t_, ptr %47, i32 0, i32 4
  %49 = load i32, ptr %48, align 4
  %50 = lshr i32 %49, 3
  %51 = and i32 %50, 16777215
  %52 = icmp slt i32 %46, %51
  br i1 %52, label %53, label %116

53:                                               ; preds = %45
  %54 = load ptr, ptr %11, align 8, !tbaa !28
  %55 = getelementptr inbounds nuw %struct.Sto_Cls_t_, ptr %54, i32 0, i32 5
  %56 = load i32, ptr %14, align 4, !tbaa !23
  %57 = sext i32 %56 to i64
  %58 = getelementptr inbounds [0 x i32], ptr %55, i64 0, i64 %57
  %59 = load i32, ptr %58, align 4, !tbaa !23
  %60 = call i32 @lit_var(i32 noundef %59)
  store i32 %60, ptr %12, align 4, !tbaa !23
  %61 = load ptr, ptr %4, align 8, !tbaa !3
  %62 = getelementptr inbounds nuw %struct.Intb_Man_t_, ptr %61, i32 0, i32 15
  %63 = load ptr, ptr %62, align 8, !tbaa !29
  %64 = load i32, ptr %12, align 4, !tbaa !23
  %65 = sext i32 %64 to i64
  %66 = getelementptr inbounds i32, ptr %63, i64 %65
  %67 = load i32, ptr %66, align 4, !tbaa !23
  %68 = icmp slt i32 %67, 0
  br i1 %68, label %69, label %90

69:                                               ; preds = %53
  %70 = load ptr, ptr %4, align 8, !tbaa !3
  %71 = getelementptr inbounds nuw %struct.Intb_Man_t_, ptr %70, i32 0, i32 15
  %72 = load ptr, ptr %71, align 8, !tbaa !29
  %73 = load i32, ptr %12, align 4, !tbaa !23
  %74 = sext i32 %73 to i64
  %75 = getelementptr inbounds i32, ptr %72, i64 %74
  %76 = load i32, ptr %75, align 4, !tbaa !23
  %77 = sub nsw i32 0, %76
  %78 = sub nsw i32 %77, 1
  store i32 %78, ptr %13, align 4, !tbaa !23
  %79 = load ptr, ptr %7, align 8, !tbaa !109
  %80 = load i32, ptr %13, align 4, !tbaa !23
  %81 = call ptr @Aig_IthVar(ptr noundef %79, i32 noundef %80)
  %82 = load ptr, ptr %11, align 8, !tbaa !28
  %83 = getelementptr inbounds nuw %struct.Sto_Cls_t_, ptr %82, i32 0, i32 5
  %84 = load i32, ptr %14, align 4, !tbaa !23
  %85 = sext i32 %84 to i64
  %86 = getelementptr inbounds [0 x i32], ptr %83, i64 0, i64 %85
  %87 = load i32, ptr %86, align 4, !tbaa !23
  %88 = call i32 @lit_sign(i32 noundef %87)
  %89 = call ptr @Aig_NotCond(ptr noundef %81, i32 noundef %88)
  store ptr %89, ptr %10, align 8, !tbaa !92
  br label %108

90:                                               ; preds = %53
  %91 = load ptr, ptr %7, align 8, !tbaa !109
  %92 = load ptr, ptr %4, align 8, !tbaa !3
  %93 = getelementptr inbounds nuw %struct.Intb_Man_t_, ptr %92, i32 0, i32 1
  %94 = load ptr, ptr %93, align 8, !tbaa !37
  %95 = call i32 @Vec_IntSize(ptr noundef %94)
  %96 = add nsw i32 %95, 1
  %97 = load i32, ptr %12, align 4, !tbaa !23
  %98 = add nsw i32 %96, %97
  %99 = call ptr @Aig_IthVar(ptr noundef %91, i32 noundef %98)
  %100 = load ptr, ptr %11, align 8, !tbaa !28
  %101 = getelementptr inbounds nuw %struct.Sto_Cls_t_, ptr %100, i32 0, i32 5
  %102 = load i32, ptr %14, align 4, !tbaa !23
  %103 = sext i32 %102 to i64
  %104 = getelementptr inbounds [0 x i32], ptr %101, i64 0, i64 %103
  %105 = load i32, ptr %104, align 4, !tbaa !23
  %106 = call i32 @lit_sign(i32 noundef %105)
  %107 = call ptr @Aig_NotCond(ptr noundef %99, i32 noundef %106)
  store ptr %107, ptr %10, align 8, !tbaa !92
  br label %108

108:                                              ; preds = %90, %69
  %109 = load ptr, ptr %7, align 8, !tbaa !109
  %110 = load ptr, ptr %9, align 8, !tbaa !92
  %111 = load ptr, ptr %10, align 8, !tbaa !92
  %112 = call ptr @Aig_Or(ptr noundef %109, ptr noundef %110, ptr noundef %111)
  store ptr %112, ptr %9, align 8, !tbaa !92
  br label %113

113:                                              ; preds = %108
  %114 = load i32, ptr %14, align 4, !tbaa !23
  %115 = add nsw i32 %114, 1
  store i32 %115, ptr %14, align 4, !tbaa !23
  br label %45, !llvm.loop !115

116:                                              ; preds = %45
  %117 = load ptr, ptr %7, align 8, !tbaa !109
  %118 = load ptr, ptr %8, align 8, !tbaa !92
  %119 = load ptr, ptr %9, align 8, !tbaa !92
  %120 = call ptr @Aig_And(ptr noundef %117, ptr noundef %118, ptr noundef %119)
  store ptr %120, ptr %8, align 8, !tbaa !92
  br label %121

121:                                              ; preds = %116, %41
  %122 = load ptr, ptr %11, align 8, !tbaa !28
  %123 = getelementptr inbounds nuw %struct.Sto_Cls_t_, ptr %122, i32 0, i32 0
  %124 = load ptr, ptr %123, align 8, !tbaa !32
  store ptr %124, ptr %11, align 8, !tbaa !28
  br label %21, !llvm.loop !116

125:                                              ; preds = %31
  %126 = load ptr, ptr %7, align 8, !tbaa !109
  %127 = load ptr, ptr %8, align 8, !tbaa !92
  %128 = call ptr @Aig_ObjCreateCo(ptr noundef %126, ptr noundef %127)
  %129 = load ptr, ptr %7, align 8, !tbaa !109
  call void @llvm.lifetime.end.p0(i64 4, ptr %14) #9
  call void @llvm.lifetime.end.p0(i64 4, ptr %13) #9
  call void @llvm.lifetime.end.p0(i64 4, ptr %12) #9
  call void @llvm.lifetime.end.p0(i64 8, ptr %11) #9
  call void @llvm.lifetime.end.p0(i64 8, ptr %10) #9
  call void @llvm.lifetime.end.p0(i64 8, ptr %9) #9
  call void @llvm.lifetime.end.p0(i64 8, ptr %8) #9
  call void @llvm.lifetime.end.p0(i64 8, ptr %7) #9
  ret ptr %129
}