; Function Attrs: nounwind uwtable
define ptr @Intb_ManDeriveClauses(ptr noundef readonly captures(none) %0, ptr noundef readonly captures(none) %1, i32 noundef %2) local_unnamed_addr #5 {
  %4 = tail call ptr @Aig_ManStart(i32 noundef 10000) #20
  %5 = getelementptr i8, ptr %4, i64 48
  %.val41 = load ptr, ptr %5, align 8, !tbaa !97
  %6 = getelementptr inbounds nuw i8, ptr %1, i64 16
  %.03645 = load ptr, ptr %6, align 8, !tbaa !21
  %.not46 = icmp eq ptr %.03645, null
  br i1 %.not46, label %.critedge, label %.lr.ph50

.lr.ph50:                                         ; preds = %3
  %7 = getelementptr inbounds nuw i8, ptr %0, i64 96
  %8 = getelementptr inbounds nuw i8, ptr %0, i64 8
  br label %9

9:                                                ; preds = %.lr.ph50, %51
  %.03648 = phi ptr [ %.03645, %.lr.ph50 ], [ %.036, %51 ]
  %.03447 = phi ptr [ %.val41, %.lr.ph50 ], [ %.1, %51 ]
  %10 = getelementptr inbounds nuw i8, ptr %.03648, i64 28
  %11 = load i32, ptr %10, align 4
  %12 = and i32 %11, 2
  %.not39 = icmp eq i32 %12, 0
  br i1 %.not39, label %.critedge, label %13

13:                                               ; preds = %9
  %14 = and i32 %11, 1
  %.not40 = icmp eq i32 %2, %14
  br i1 %.not40, label %15, label %51

15:                                               ; preds = %13
  %.val42 = load ptr, ptr %5, align 8, !tbaa !97
  %16 = ptrtoint ptr %.val42 to i64
  %17 = xor i64 %16, 1
  %18 = inttoptr i64 %17 to ptr
  %19 = and i32 %11, 134217720
  %.not54 = icmp eq i32 %19, 0
  br i1 %.not54, label %._crit_edge, label %.lr.ph

.lr.ph:                                           ; preds = %15
  %20 = getelementptr inbounds nuw i8, ptr %.03648, i64 32
  br label %21

21:                                               ; preds = %.lr.ph, %37
  %indvars.iv = phi i64 [ 0, %.lr.ph ], [ %indvars.iv.next, %37 ]
  %.03543 = phi ptr [ %18, %.lr.ph ], [ %44, %37 ]
  %22 = getelementptr inbounds nuw [0 x i32], ptr %20, i64 0, i64 %indvars.iv
  %23 = load i32, ptr %22, align 4, !tbaa !26
  %24 = ashr i32 %23, 1
  %25 = load ptr, ptr %7, align 8, !tbaa !25
  %26 = sext i32 %24 to i64
  %27 = getelementptr inbounds i32, ptr %25, i64 %26
  %28 = load i32, ptr %27, align 4, !tbaa !26
  %29 = icmp slt i32 %28, 0
  br i1 %29, label %30, label %32

30:                                               ; preds = %21
  %31 = xor i32 %28, -1
  br label %37

32:                                               ; preds = %21
  %33 = load ptr, ptr %8, align 8, !tbaa !30
  %34 = getelementptr i8, ptr %33, i64 4
  %.val = load i32, ptr %34, align 4, !tbaa !31
  %35 = add nsw i32 %24, 1
  %36 = add i32 %35, %.val
  br label %37

37:                                               ; preds = %32, %30
  %.sink59 = phi i32 [ %36, %32 ], [ %31, %30 ]
  %38 = tail call ptr @Aig_IthVar(ptr noundef %4, i32 noundef %.sink59) #20
  %39 = load i32, ptr %22, align 4, !tbaa !26
  %40 = and i32 %39, 1
  %41 = ptrtoint ptr %38 to i64
  %42 = zext nneg i32 %40 to i64
  %43 = xor i64 %42, %41
  %.037 = inttoptr i64 %43 to ptr
  %44 = tail call ptr @Aig_Or(ptr noundef %4, ptr noundef %.03543, ptr noundef %.037) #20
  %indvars.iv.next = add nuw nsw i64 %indvars.iv, 1
  %45 = load i32, ptr %10, align 4
  %46 = lshr i32 %45, 3
  %47 = and i32 %46, 16777215
  %48 = zext nneg i32 %47 to i64
  %49 = icmp samesign ult i64 %indvars.iv.next, %48
  br i1 %49, label %21, label %._crit_edge, !llvm.loop !111

._crit_edge:                                      ; preds = %37, %15
  %.035.lcssa = phi ptr [ %18, %15 ], [ %44, %37 ]
  %50 = tail call ptr @Aig_And(ptr noundef %4, ptr noundef %.03447, ptr noundef %.035.lcssa) #20
  br label %51

51:                                               ; preds = %13, %._crit_edge
  %.1 = phi ptr [ %.03447, %13 ], [ %50, %._crit_edge ]
  %.036 = load ptr, ptr %.03648, align 8, !tbaa !21
  %.not = icmp eq ptr %.036, null
  br i1 %.not, label %.critedge, label %9, !llvm.loop !112

.critedge:                                        ; preds = %9, %51, %3
  %.034.lcssa = phi ptr [ %.val41, %3 ], [ %.1, %51 ], [ %.03447, %9 ]
  %52 = tail call ptr @Aig_ObjCreateCo(ptr noundef %4, ptr noundef %.034.lcssa) #20
  ret ptr %4
}